; Function Attrs: mustprogress uwtable
define void @gguf_get_meta_data(ptr noundef readonly captures(none) %0, ptr noundef writeonly captures(none) %1) local_unnamed_addr #2 personality ptr @__gxx_personality_v0 {
  %3 = alloca %"class.std::vector.27", align 8
  call void @llvm.lifetime.start.p0(i64 24, ptr nonnull %3) #29
  call void @llvm.memset.p0.i64(ptr noundef nonnull align 8 dereferenceable(24) %3, i8 0, i64 24, i1 false)
  invoke void @_Z17gguf_write_to_bufPK12gguf_contextRSt6vectorIaSaIaEEb(ptr noundef %0, ptr noundef nonnull align 8 dereferenceable(24) %3, i1 noundef zeroext true)
          to label %4 unwind label %16

4:                                                ; preds = %2
  %5 = load ptr, ptr %3, align 8, !tbaa !98
  %6 = getelementptr inbounds nuw i8, ptr %3, i64 8
  %7 = load ptr, ptr %6, align 8, !tbaa !100
  %8 = ptrtoint ptr %7 to i64
  %9 = ptrtoint ptr %5 to i64
  %10 = sub i64 %8, %9
  call void @llvm.memcpy.p0.p0.i64(ptr align 1 %1, ptr align 1 %5, i64 %10, i1 false)
  %.not.i.i.i = icmp eq ptr %5, null
  br i1 %.not.i.i.i, label %_ZNSt6vectorIaSaIaEED2Ev.exit, label %11

11:                                               ; preds = %4
  %12 = getelementptr inbounds nuw i8, ptr %3, i64 16
  %13 = load ptr, ptr %12, align 8, !tbaa !101
  %14 = ptrtoint ptr %13 to i64
  %15 = sub i64 %14, %9
  call void @_ZdlPvm(ptr noundef nonnull %5, i64 noundef %15) #32
  br label %_ZNSt6vectorIaSaIaEED2Ev.exit

_ZNSt6vectorIaSaIaEED2Ev.exit:                    ; preds = %4, %11
  call void @llvm.lifetime.end.p0(i64 24, ptr nonnull %3) #29
  ret void

16:                                               ; preds = %2
  %17 = landingpad { ptr, i32 }
          cleanup
  %18 = load ptr, ptr %3, align 8, !tbaa !98
  %.not.i.i.i3 = icmp eq ptr %18, null
  br i1 %.not.i.i.i3, label %_ZNSt6vectorIaSaIaEED2Ev.exit4, label %19

19:                                               ; preds = %16
  %20 = getelementptr inbounds nuw i8, ptr %3, i64 16
  %21 = load ptr, ptr %20, align 8, !tbaa !101
  %22 = ptrtoint ptr %21 to i64
  %23 = ptrtoint ptr %18 to i64
  %24 = sub i64 %22, %23
  call void @_ZdlPvm(ptr noundef nonnull %18, i64 noundef %24) #32
  br label %_ZNSt6vectorIaSaIaEED2Ev.exit4

_ZNSt6vectorIaSaIaEED2Ev.exit4:                   ; preds = %16, %19
  call void @llvm.lifetime.end.p0(i64 24, ptr nonnull %3) #29
  resume { ptr, i32 } %17
}